target datalayout = "e-m:e-p270:32:32-p271:32:32-p272:64:64-i64:64-i128:128-f80:128-n8:16:32:64-S128"
target triple = "x86_64-pc-linux-gnu"

%struct.MEMO = type { i64, i64, i64, i64, %union.anon.1 }
%union.anon.1 = type { i64 }

@.str.84 = private unnamed_addr constant [20 x i8] c"../internal/imemo.h\00", align 1

; Function Attrs: inlinehint nounwind sspstrong willreturn memory(none) uwtable
define internal zeroext i1 @RB_IMMEDIATE_P(i64 noundef %0) #6 {
  %2 = alloca i64, align 8
  store i64 %0, ptr %2, align 8, !tbaa !14
  %3 = load i64, ptr %2, align 8, !tbaa !14
  %4 = and i64 %3, 7
  %5 = icmp ne i64 %4, 0
  ret i1 %5
}

; Function Attrs: inlinehint nounwind sspstrong willreturn memory(none) uwtable
define internal zeroext i1 @RB_SPECIAL_CONST_P(i64 noundef %0) #6 {
  %2 = alloca i64, align 8
  store i64 %0, ptr %2, align 8, !tbaa !14
  %3 = load i64, ptr %2, align 8, !tbaa !14
  %4 = icmp eq i64 %3, 0
  br i1 %4, label %8, label %5

5:                                                ; preds = %1
  %6 = load i64, ptr %2, align 8, !tbaa !14
  %7 = call zeroext i1 @RB_IMMEDIATE_P(i64 noundef %6) #25
  br label %8

8:                                                ; preds = %5, %1
  %9 = phi i1 [ true, %1 ], [ %7, %5 ]
  ret i1 %9
}

; Function Attrs: inlinehint nounwind sspstrong uwtable
define internal i64 @rb_obj_written(i64 noundef %0, i64 noundef %1, i64 noundef %2, ptr noundef %3, i32 noundef %4) #3 {
  %6 = alloca i64, align 8
  %7 = alloca i64, align 8
  %8 = alloca i64, align 8
  %9 = alloca ptr, align 8
  %10 = alloca i32, align 4
  store i64 %0, ptr %6, align 8, !tbaa !14
  store i64 %1, ptr %7, align 8, !tbaa !14
  store i64 %2, ptr %8, align 8, !tbaa !14
  store ptr %3, ptr %9, align 8, !tbaa !86
  store i32 %4, ptr %10, align 4, !tbaa !7
  %11 = load i64, ptr %8, align 8, !tbaa !14
  %12 = call zeroext i1 @RB_SPECIAL_CONST_P(i64 noundef %11) #25
  br i1 %12, label %16, label %13

13:                                               ; preds = %5
  %14 = load i64, ptr %6, align 8, !tbaa !14
  %15 = load i64, ptr %8, align 8, !tbaa !14
  call void @rb_gc_writebarrier(i64 noundef %14, i64 noundef %15)
  br label %16

16:                                               ; preds = %13, %5
  %17 = load i64, ptr %6, align 8, !tbaa !14
  ret i64 %17
}

; Function Attrs: inlinehint nounwind sspstrong uwtable
define internal i64 @rb_obj_write(i64 noundef %0, ptr noundef %1, i64 noundef %2, ptr noundef %3, i32 noundef %4) #3 {
  %6 = alloca i64, align 8
  %7 = alloca ptr, align 8
  %8 = alloca i64, align 8
  %9 = alloca ptr, align 8
  %10 = alloca i32, align 4
  store i64 %0, ptr %6, align 8, !tbaa !14
  store ptr %1, ptr %7, align 8, !tbaa !11
  store i64 %2, ptr %8, align 8, !tbaa !14
  store ptr %3, ptr %9, align 8, !tbaa !86
  store i32 %4, ptr %10, align 4, !tbaa !7
  %11 = load i64, ptr %8, align 8, !tbaa !14
  %12 = load ptr, ptr %7, align 8, !tbaa !11
  store i64 %11, ptr %12, align 8, !tbaa !14
  %13 = load i64, ptr %6, align 8, !tbaa !14
  %14 = load i64, ptr %8, align 8, !tbaa !14
  %15 = load ptr, ptr %9, align 8, !tbaa !86
  %16 = load i32, ptr %10, align 4, !tbaa !7
  %17 = call i64 @rb_obj_written(i64 noundef %13, i64 noundef 36, i64 noundef %14, ptr noundef %15, i32 noundef %16)
  %18 = load i64, ptr %6, align 8, !tbaa !14
  ret i64 %18
}

; Function Attrs: inlinehint nounwind sspstrong uwtable
define internal void @MEMO_V1_SET(ptr noundef %0, i64 noundef %1) #3 {
  %3 = alloca ptr, align 8
  %4 = alloca i64, align 8
  store ptr %0, ptr %3, align 8, !tbaa !34
  store i64 %1, ptr %4, align 8, !tbaa !14
  %5 = load ptr, ptr %3, align 8, !tbaa !34
  %6 = ptrtoint ptr %5 to i64
  %7 = load ptr, ptr %3, align 8, !tbaa !34
  %8 = getelementptr inbounds nuw %struct.MEMO, ptr %7, i32 0, i32 2
  %9 = load i64, ptr %4, align 8, !tbaa !14
  %10 = call i64 @rb_obj_write(i64 noundef %6, ptr noundef %8, i64 noundef %9, ptr noundef @.str.84, i32 noundef 248)
  ret void
}

; Function Attrs: inlinehint nounwind sspstrong willreturn memory(none) uwtable
define internal zeroext i1 @RB_TEST(i64 noundef %0) #6 {
  %2 = alloca i64, align 8
  store i64 %0, ptr %2, align 8, !tbaa !14
  %3 = load i64, ptr %2, align 8, !tbaa !14
  %4 = and i64 %3, -5
  %5 = icmp ne i64 %4, 0
  ret i1 %5
}

; Function Attrs: nounwind sspstrong uwtable
define internal i64 @enum_any_func(i64 noundef %0, ptr noundef %1) #0 {
  %3 = alloca i64, align 8
  %4 = alloca ptr, align 8
  store i64 %0, ptr %3, align 8, !tbaa !14
  store ptr %1, ptr %4, align 8, !tbaa !34
  %5 = load i64, ptr %3, align 8, !tbaa !14
  %6 = call zeroext i1 @RB_TEST(i64 noundef %5) #25
  br i1 %6, label %7, label %9

7:                                                ; preds = %2
  %8 = load ptr, ptr %4, align 8, !tbaa !34
  call void @MEMO_V1_SET(ptr noundef %8, i64 noundef 20)
  call void @rb_iter_break() #23
  unreachable

9:                                                ; preds = %2
  ret i64 4
}

; Function Attrs: nounwind sspstrong uwtable
define internal i64 @any_iter_i(i64 noundef %0, i64 noundef %1, i32 noundef %2, ptr noundef %3, i64 noundef %4) #0 {
  %6 = alloca i64, align 8
  %7 = alloca i64, align 8
  %8 = alloca i32, align 4
  %9 = alloca ptr, align 8
  %10 = alloca i64, align 8
  store i64 %0, ptr %6, align 8, !tbaa !14
  store i64 %1, ptr %7, align 8, !tbaa !14
  store i32 %2, ptr %8, align 4, !tbaa !7
  store ptr %3, ptr %9, align 8, !tbaa !11
  store i64 %4, ptr %10, align 8, !tbaa !14
  %11 = load i32, ptr %8, align 4, !tbaa !7
  %12 = load ptr, ptr %9, align 8, !tbaa !11
  %13 = call i64 @rb_yield_values2(i32 noundef %11, ptr noundef %12)
  %14 = load i64, ptr %7, align 8, !tbaa !14
  %15 = inttoptr i64 %14 to ptr
  %16 = call i64 @enum_any_func(i64 noundef %13, ptr noundef %15)
  ret i64 %16
}